target datalayout = "e-m:e-p270:32:32-p271:32:32-p272:64:64-i64:64-i128:128-f80:128-n8:16:32:64-S128"
target triple = "x86_64-pc-linux-gnu"

%struct.Aig_Obj_t_ = type { %union.anon, ptr, ptr, i64, i32, i32, %union.anon.0 }
%union.anon = type { ptr }
%union.anon.0 = type { ptr }
%struct.Aig_Man_t_ = type { ptr, ptr, ptr, ptr, ptr, ptr, ptr, %struct.Aig_Obj_t_, i32, i32, i32, i32, i32, i32, [7 x i32], i32, ptr, i32, ptr, i32, ptr, i32, i32, i32, ptr, i32, i32, i32, i32, i32, ptr, ptr, i32, ptr, ptr, i32, ptr, ptr, i32, i32, i32, ptr, ptr, ptr, ptr, ptr, ptr, ptr, ptr, ptr, ptr, ptr, ptr, ptr, ptr, i32, ptr, ptr, ptr, ptr, i32, i64, i64, i64, ptr, ptr }
%struct.Vec_Ptr_t_ = type { i32, i32, ptr }

; Function Attrs: inlinehint nounwind uwtable
define internal i32 @Aig_ManCoNum(ptr noundef %0) #1 {
  %2 = alloca ptr, align 8
  store ptr %0, ptr %2, align 8, !tbaa !3
  %3 = load ptr, ptr %2, align 8, !tbaa !3
  %4 = getelementptr inbounds nuw %struct.Aig_Man_t_, ptr %3, i32 0, i32 14
  %5 = getelementptr inbounds [7 x i32], ptr %4, i64 0, i64 3
  %6 = load i32, ptr %5, align 4, !tbaa !26
  ret i32 %6
}

; Function Attrs: inlinehint nounwind uwtable
define internal ptr @Aig_ManLo(ptr noundef %0, i32 noundef %1) #1 {
  %3 = alloca ptr, align 8
  %4 = alloca i32, align 4
  store ptr %0, ptr %3, align 8, !tbaa !3
  store i32 %1, ptr %4, align 4, !tbaa !26
  %5 = load ptr, ptr %3, align 8, !tbaa !3
  %6 = getelementptr inbounds nuw %struct.Aig_Man_t_, ptr %5, i32 0, i32 2
  %7 = load ptr, ptr %6, align 8, !tbaa !30
  %8 = load ptr, ptr %3, align 8, !tbaa !3
  %9 = call i32 @Aig_ManCiNum(ptr noundef %8)
  %10 = load ptr, ptr %3, align 8, !tbaa !3
  %11 = call i32 @Aig_ManRegNum(ptr noundef %10)
  %12 = sub nsw i32 %9, %11
  %13 = load i32, ptr %4, align 4, !tbaa !26
  %14 = add nsw i32 %12, %13
  %15 = call ptr @Vec_PtrEntry(ptr noundef %7, i32 noundef %14)
  ret ptr %15
}

; Function Attrs: inlinehint nounwind uwtable
define internal ptr @Aig_ManLi(ptr noundef %0, i32 noundef %1) #1 {
  %3 = alloca ptr, align 8
  %4 = alloca i32, align 4
  store ptr %0, ptr %3, align 8, !tbaa !3
  store i32 %1, ptr %4, align 4, !tbaa !26
  %5 = load ptr, ptr %3, align 8, !tbaa !3
  %6 = getelementptr inbounds nuw %struct.Aig_Man_t_, ptr %5, i32 0, i32 3
  %7 = load ptr, ptr %6, align 8, !tbaa !34
  %8 = load ptr, ptr %3, align 8, !tbaa !3
  %9 = call i32 @Aig_ManCoNum(ptr noundef %8)
  %10 = load ptr, ptr %3, align 8, !tbaa !3
  %11 = call i32 @Aig_ManRegNum(ptr noundef %10)
  %12 = sub nsw i32 %9, %11
  %13 = load i32, ptr %4, align 4, !tbaa !26
  %14 = add nsw i32 %12, %13
  %15 = call ptr @Vec_PtrEntry(ptr noundef %7, i32 noundef %14)
  ret ptr %15
}

; Function Attrs: inlinehint nounwind uwtable
define internal i32 @Aig_ManRegNum(ptr noundef %0) #1 {
  %2 = alloca ptr, align 8
  store ptr %0, ptr %2, align 8, !tbaa !3
  %3 = load ptr, ptr %2, align 8, !tbaa !3
  %4 = getelementptr inbounds nuw %struct.Aig_Man_t_, ptr %3, i32 0, i32 8
  %5 = load i32, ptr %4, align 8, !tbaa !43
  ret i32 %5
}

; Function Attrs: inlinehint nounwind uwtable
define internal i32 @Aig_ManCiNum(ptr noundef %0) #1 {
  %2 = alloca ptr, align 8
  store ptr %0, ptr %2, align 8, !tbaa !3
  %3 = load ptr, ptr %2, align 8, !tbaa !3
  %4 = getelementptr inbounds nuw %struct.Aig_Man_t_, ptr %3, i32 0, i32 14
  %5 = getelementptr inbounds [7 x i32], ptr %4, i64 0, i64 2
  %6 = load i32, ptr %5, align 8, !tbaa !26
  ret i32 %6
}

; Function Attrs: inlinehint nounwind uwtable
define internal ptr @Vec_PtrEntry(ptr noundef %0, i32 noundef %1) #1 {
  %3 = alloca ptr, align 8
  %4 = alloca i32, align 4
  store ptr %0, ptr %3, align 8, !tbaa !38
  store i32 %1, ptr %4, align 4, !tbaa !26
  %5 = load ptr, ptr %3, align 8, !tbaa !38
  %6 = getelementptr inbounds nuw %struct.Vec_Ptr_t_, ptr %5, i32 0, i32 2
  %7 = load ptr, ptr %6, align 8, !tbaa !41
  %8 = load i32, ptr %4, align 4, !tbaa !26
  %9 = sext i32 %8 to i64
  %10 = getelementptr inbounds ptr, ptr %7, i64 %9
  %11 = load ptr, ptr %10, align 8, !tbaa !42
  ret ptr %11
}

; Function Attrs: inlinehint nounwind uwtable
define internal i32 @Vec_PtrSize(ptr noundef %0) #1 {
  %2 = alloca ptr, align 8
  store ptr %0, ptr %2, align 8, !tbaa !38
  %3 = load ptr, ptr %2, align 8, !tbaa !38
  %4 = getelementptr inbounds nuw %struct.Vec_Ptr_t_, ptr %3, i32 0, i32 1
  %5 = load i32, ptr %4, align 4, !tbaa !39
  ret i32 %5
}

; Function Attrs: nounwind uwtable
define void @Aig_ManRetimeMark(ptr noundef %0) #0 {
  %2 = alloca ptr, align 8
  %3 = alloca ptr, align 8
  %4 = alloca ptr, align 8
  %5 = alloca ptr, align 8
  %6 = alloca i32, align 4
  %7 = alloca i32, align 4
  store ptr %0, ptr %2, align 8, !tbaa !3
  call void @llvm.lifetime.start.p0(i64 8, ptr %3) #4
  call void @llvm.lifetime.start.p0(i64 8, ptr %4) #4
  call void @llvm.lifetime.start.p0(i64 8, ptr %5) #4
  call void @llvm.lifetime.start.p0(i64 4, ptr %6) #4
  call void @llvm.lifetime.start.p0(i64 4, ptr %7) #4
  store i32 0, ptr %7, align 4, !tbaa !26
  br label %8

8:                                                ; preds = %29, %1
  %9 = load i32, ptr %7, align 4, !tbaa !26
  %10 = load ptr, ptr %2, align 8, !tbaa !3
  %11 = getelementptr inbounds nuw %struct.Aig_Man_t_, ptr %10, i32 0, i32 4
  %12 = load ptr, ptr %11, align 8, !tbaa !27
  %13 = call i32 @Vec_PtrSize(ptr noundef %12)
  %14 = icmp slt i32 %9, %13
  br i1 %14, label %15, label %21

15:                                               ; preds = %8
  %16 = load ptr, ptr %2, align 8, !tbaa !3
  %17 = getelementptr inbounds nuw %struct.Aig_Man_t_, ptr %16, i32 0, i32 4
  %18 = load ptr, ptr %17, align 8, !tbaa !27
  %19 = load i32, ptr %7, align 4, !tbaa !26
  %20 = call ptr @Vec_PtrEntry(ptr noundef %18, i32 noundef %19)
  store ptr %20, ptr %3, align 8, !tbaa !8
  br label %21

21:                                               ; preds = %15, %8
  %22 = phi i1 [ false, %8 ], [ true, %15 ]
  br i1 %22, label %23, label %32

23:                                               ; preds = %21
  %24 = load ptr, ptr %3, align 8, !tbaa !8
  %25 = icmp eq ptr %24, null
  br i1 %25, label %26, label %27

26:                                               ; preds = %23
  br label %28

27:                                               ; preds = %23
  br label %28

28:                                               ; preds = %27, %26
  br label %29

29:                                               ; preds = %28
  %30 = load i32, ptr %7, align 4, !tbaa !26
  %31 = add nsw i32 %30, 1
  store i32 %31, ptr %7, align 4, !tbaa !26
  br label %8, !llvm.loop !28

32:                                               ; preds = %21
  store i32 0, ptr %7, align 4, !tbaa !26
  br label %33

33:                                               ; preds = %55, %32
  %34 = load i32, ptr %7, align 4, !tbaa !26
  %35 = load ptr, ptr %2, align 8, !tbaa !3
  %36 = call i32 @Aig_ManCiNum(ptr noundef %35)
  %37 = load ptr, ptr %2, align 8, !tbaa !3
  %38 = call i32 @Aig_ManRegNum(ptr noundef %37)
  %39 = sub nsw i32 %36, %38
  %40 = icmp slt i32 %34, %39
  br i1 %40, label %41, label %47

41:                                               ; preds = %33
  %42 = load ptr, ptr %2, align 8, !tbaa !3
  %43 = getelementptr inbounds nuw %struct.Aig_Man_t_, ptr %42, i32 0, i32 2
  %44 = load ptr, ptr %43, align 8, !tbaa !30
  %45 = load i32, ptr %7, align 4, !tbaa !26
  %46 = call ptr @Vec_PtrEntry(ptr noundef %44, i32 noundef %45)
  store ptr %46, ptr %3, align 8, !tbaa !8
  br label %47

47:                                               ; preds = %41, %33
  %48 = phi i1 [ false, %33 ], [ true, %41 ]
  br i1 %48, label %49, label %58

49:                                               ; preds = %47
  %50 = load ptr, ptr %3, align 8, !tbaa !8
  %51 = getelementptr inbounds nuw %struct.Aig_Obj_t_, ptr %50, i32 0, i32 3
  %52 = load i64, ptr %51, align 8
  %53 = and i64 %52, -33
  %54 = or i64 %53, 32
  store i64 %54, ptr %51, align 8
  br label %55

55:                                               ; preds = %49
  %56 = load i32, ptr %7, align 4, !tbaa !26
  %57 = add nsw i32 %56, 1
  store i32 %57, ptr %7, align 4, !tbaa !26
  br label %33, !llvm.loop !31

58:                                               ; preds = %47
  store i32 0, ptr %7, align 4, !tbaa !26
  br label %59

59:                                               ; preds = %81, %58
  %60 = load i32, ptr %7, align 4, !tbaa !26
  %61 = load ptr, ptr %2, align 8, !tbaa !3
  %62 = call i32 @Aig_ManRegNum(ptr noundef %61)
  %63 = icmp slt i32 %60, %62
  br i1 %63, label %64, label %72

64:                                               ; preds = %59
  %65 = load ptr, ptr %2, align 8, !tbaa !3
  %66 = load i32, ptr %7, align 4, !tbaa !26
  %67 = call ptr @Aig_ManLi(ptr noundef %65, i32 noundef %66)
  store ptr %67, ptr %4, align 8, !tbaa !8
  br i1 true, label %68, label %72

68:                                               ; preds = %64
  %69 = load ptr, ptr %2, align 8, !tbaa !3
  %70 = load i32, ptr %7, align 4, !tbaa !26
  %71 = call ptr @Aig_ManLo(ptr noundef %69, i32 noundef %70)
  store ptr %71, ptr %5, align 8, !tbaa !8
  br label %72

72:                                               ; preds = %68, %64, %59
  %73 = phi i1 [ false, %64 ], [ false, %59 ], [ true, %68 ]
  br i1 %73, label %74, label %84

74:                                               ; preds = %72
  %75 = load ptr, ptr %4, align 8, !tbaa !8
  %76 = load ptr, ptr %5, align 8, !tbaa !8
  %77 = getelementptr inbounds nuw %struct.Aig_Obj_t_, ptr %76, i32 0, i32 0
  store ptr %75, ptr %77, align 8, !tbaa !32
  %78 = load ptr, ptr %5, align 8, !tbaa !8
  %79 = load ptr, ptr %4, align 8, !tbaa !8
  %80 = getelementptr inbounds nuw %struct.Aig_Obj_t_, ptr %79, i32 0, i32 0
  store ptr %78, ptr %80, align 8, !tbaa !32
  br label %81

81:                                               ; preds = %74
  %82 = load i32, ptr %7, align 4, !tbaa !26
  %83 = add nsw i32 %82, 1
  store i32 %83, ptr %7, align 4, !tbaa !26
  br label %59, !llvm.loop !33

84:                                               ; preds = %72
  store i32 1, ptr %6, align 4, !tbaa !26
  br label %85

85:                                               ; preds = %137, %84
  %86 = load i32, ptr %6, align 4, !tbaa !26
  %87 = icmp ne i32 %86, 0
  br i1 %87, label %88, label %138

88:                                               ; preds = %85
  store i32 0, ptr %6, align 4, !tbaa !26
  %89 = load ptr, ptr %2, align 8, !tbaa !3
  call void @Aig_ManIncrementTravId(ptr noundef %89)
  store i32 0, ptr %7, align 4, !tbaa !26
  br label %90

90:                                               ; preds = %134, %88
  %91 = load i32, ptr %7, align 4, !tbaa !26
  %92 = load ptr, ptr %2, align 8, !tbaa !3
  %93 = getelementptr inbounds nuw %struct.Aig_Man_t_, ptr %92, i32 0, i32 3
  %94 = load ptr, ptr %93, align 8, !tbaa !34
  %95 = call i32 @Vec_PtrSize(ptr noundef %94)
  %96 = icmp slt i32 %91, %95
  br i1 %96, label %97, label %103

97:                                               ; preds = %90
  %98 = load ptr, ptr %2, align 8, !tbaa !3
  %99 = getelementptr inbounds nuw %struct.Aig_Man_t_, ptr %98, i32 0, i32 3
  %100 = load ptr, ptr %99, align 8, !tbaa !34
  %101 = load i32, ptr %7, align 4, !tbaa !26
  %102 = call ptr @Vec_PtrEntry(ptr noundef %100, i32 noundef %101)
  store ptr %102, ptr %3, align 8, !tbaa !8
  br label %103

103:                                              ; preds = %97, %90
  %104 = phi i1 [ false, %90 ], [ true, %97 ]
  br i1 %104, label %105, label %137

105:                                              ; preds = %103
  %106 = load ptr, ptr %3, align 8, !tbaa !8
  %107 = getelementptr inbounds nuw %struct.Aig_Obj_t_, ptr %106, i32 0, i32 3
  %108 = load i64, ptr %107, align 8
  %109 = lshr i64 %108, 5
  %110 = and i64 %109, 1
  %111 = trunc i64 %110 to i32
  %112 = icmp ne i32 %111, 0
  br i1 %112, label %113, label %114

113:                                              ; preds = %105
  br label %134

114:                                              ; preds = %105
  %115 = load ptr, ptr %2, align 8, !tbaa !3
  %116 = load ptr, ptr %3, align 8, !tbaa !8
  %117 = call i32 @Aig_ManRetimeMark_rec(ptr noundef %115, ptr noundef %116)
  %118 = icmp ne i32 %117, 0
  br i1 %118, label %119, label %133

119:                                              ; preds = %114
  %120 = load ptr, ptr %3, align 8, !tbaa !8
  %121 = getelementptr inbounds nuw %struct.Aig_Obj_t_, ptr %120, i32 0, i32 0
  %122 = load ptr, ptr %121, align 8, !tbaa !32
  %123 = icmp ne ptr %122, null
  br i1 %123, label %124, label %132

124:                                              ; preds = %119
  %125 = load ptr, ptr %3, align 8, !tbaa !8
  %126 = getelementptr inbounds nuw %struct.Aig_Obj_t_, ptr %125, i32 0, i32 0
  %127 = load ptr, ptr %126, align 8, !tbaa !32
  %128 = getelementptr inbounds nuw %struct.Aig_Obj_t_, ptr %127, i32 0, i32 3
  %129 = load i64, ptr %128, align 8
  %130 = and i64 %129, -33
  %131 = or i64 %130, 32
  store i64 %131, ptr %128, align 8
  br label %132

132:                                              ; preds = %124, %119
  store i32 1, ptr %6, align 4, !tbaa !26
  br label %133

133:                                              ; preds = %132, %114
  br label %134

134:                                              ; preds = %133, %113
  %135 = load i32, ptr %7, align 4, !tbaa !26
  %136 = add nsw i32 %135, 1
  store i32 %136, ptr %7, align 4, !tbaa !26
  br label %90, !llvm.loop !35

137:                                              ; preds = %103
  br label %85, !llvm.loop !36

138:                                              ; preds = %85
  store i32 0, ptr %7, align 4, !tbaa !26
  br label %139

139:                                              ; preds = %159, %138
  %140 = load i32, ptr %7, align 4, !tbaa !26
  %141 = load ptr, ptr %2, align 8, !tbaa !3
  %142 = call i32 @Aig_ManRegNum(ptr noundef %141)
  %143 = icmp slt i32 %140, %142
  br i1 %143, label %144, label %152

144:                                              ; preds = %139
  %145 = load ptr, ptr %2, align 8, !tbaa !3
  %146 = load i32, ptr %7, align 4, !tbaa !26
  %147 = call ptr @Aig_ManLi(ptr noundef %145, i32 noundef %146)
  store ptr %147, ptr %4, align 8, !tbaa !8
  br i1 true, label %148, label %152

148:                                              ; preds = %144
  %149 = load ptr, ptr %2, align 8, !tbaa !3
  %150 = load i32, ptr %7, align 4, !tbaa !26
  %151 = call ptr @Aig_ManLo(ptr noundef %149, i32 noundef %150)
  store ptr %151, ptr %5, align 8, !tbaa !8
  br label %152

152:                                              ; preds = %148, %144, %139
  %153 = phi i1 [ false, %144 ], [ false, %139 ], [ true, %148 ]
  br i1 %153, label %154, label %162

154:                                              ; preds = %152
  %155 = load ptr, ptr %4, align 8, !tbaa !8
  %156 = getelementptr inbounds nuw %struct.Aig_Obj_t_, ptr %155, i32 0, i32 0
  store ptr null, ptr %156, align 8, !tbaa !32
  %157 = load ptr, ptr %5, align 8, !tbaa !8
  %158 = getelementptr inbounds nuw %struct.Aig_Obj_t_, ptr %157, i32 0, i32 0
  store ptr null, ptr %158, align 8, !tbaa !32
  br label %159

159:                                              ; preds = %154
  %160 = load i32, ptr %7, align 4, !tbaa !26
  %161 = add nsw i32 %160, 1
  store i32 %161, ptr %7, align 4, !tbaa !26
  br label %139, !llvm.loop !37

162:                                              ; preds = %152
  call void @llvm.lifetime.end.p0(i64 4, ptr %7) #4
  call void @llvm.lifetime.end.p0(i64 4, ptr %6) #4
  call void @llvm.lifetime.end.p0(i64 8, ptr %5) #4
  call void @llvm.lifetime.end.p0(i64 8, ptr %4) #4
  call void @llvm.lifetime.end.p0(i64 8, ptr %3) #4
  ret void
}