; Function Attrs: nounwind uwtable
define void @Aig_ManRetimeMark(ptr noundef %0) local_unnamed_addr #1 {
.critedge.preheader:
  %1 = getelementptr i8, ptr %0, i64 136
  %2 = getelementptr i8, ptr %0, i64 104
  %.val6377 = load i32, ptr %1, align 8, !tbaa !24
  %.val6478 = load i32, ptr %2, align 8, !tbaa !25
  %3 = icmp sgt i32 %.val6377, %.val6478
  br i1 %3, label %.lr.ph, label %.critedge2.preheader

.lr.ph:                                           ; preds = %.critedge.preheader
  %4 = getelementptr inbounds nuw i8, ptr %0, i64 16
  br label %.critedge

.critedge2.preheader:                             ; preds = %.critedge, %.critedge.preheader
  %.val6580 = phi i32 [ %.val6478, %.critedge.preheader ], [ %.val64, %.critedge ]
  %5 = icmp sgt i32 %.val6580, 0
  br i1 %5, label %.lr.ph84, label %.critedge6.preheader

.lr.ph84:                                         ; preds = %.critedge2.preheader
  %6 = getelementptr inbounds nuw i8, ptr %0, i64 24
  %7 = getelementptr i8, ptr %0, i64 140
  %8 = getelementptr inbounds nuw i8, ptr %0, i64 16
  br label %.critedge2

.critedge:                                        ; preds = %.lr.ph, %.critedge
  %indvars.iv = phi i64 [ 0, %.lr.ph ], [ %indvars.iv.next, %.critedge ]
  %9 = load ptr, ptr %4, align 8, !tbaa !26
  %10 = getelementptr i8, ptr %9, i64 8
  %.val61 = load ptr, ptr %10, align 8, !tbaa !27
  %11 = getelementptr inbounds nuw ptr, ptr %.val61, i64 %indvars.iv
  %12 = load ptr, ptr %11, align 8, !tbaa !29
  %13 = getelementptr inbounds nuw i8, ptr %12, i64 24
  %14 = load i64, ptr %13, align 8
  %15 = or i64 %14, 32
  store i64 %15, ptr %13, align 8
  %indvars.iv.next = add nuw nsw i64 %indvars.iv, 1
  %.val63 = load i32, ptr %1, align 8, !tbaa !24
  %.val64 = load i32, ptr %2, align 8, !tbaa !25
  %16 = sub nsw i32 %.val63, %.val64
  %17 = sext i32 %16 to i64
  %18 = icmp slt i64 %indvars.iv.next, %17
  br i1 %18, label %.critedge, label %.critedge2.preheader, !llvm.loop !30

.critedge6.preheader:                             ; preds = %.critedge2, %.critedge2.preheader
  %19 = getelementptr inbounds nuw i8, ptr %0, i64 24
  br label %39

.critedge2:                                       ; preds = %.lr.ph84, %.critedge2
  %.val6580.pn = phi i32 [ %.val6580, %.lr.ph84 ], [ %.val65, %.critedge2 ]
  %.282 = phi i32 [ 0, %.lr.ph84 ], [ %33, %.critedge2 ]
  %20 = load ptr, ptr %6, align 8, !tbaa !32
  %.val4.i = load i32, ptr %7, align 4, !tbaa !24
  %21 = sub i32 %.282, %.val6580.pn
  %22 = add i32 %21, %.val4.i
  %23 = getelementptr i8, ptr %20, i64 8
  %.val.i = load ptr, ptr %23, align 8, !tbaa !27
  %24 = sext i32 %22 to i64
  %25 = getelementptr inbounds ptr, ptr %.val.i, i64 %24
  %26 = load ptr, ptr %25, align 8, !tbaa !29
  %27 = load ptr, ptr %8, align 8, !tbaa !26
  %.val3.i67 = load i32, ptr %1, align 8, !tbaa !24
  %28 = add i32 %21, %.val3.i67
  %29 = getelementptr i8, ptr %27, i64 8
  %.val.i69 = load ptr, ptr %29, align 8, !tbaa !27
  %30 = sext i32 %28 to i64
  %31 = getelementptr inbounds ptr, ptr %.val.i69, i64 %30
  %32 = load ptr, ptr %31, align 8, !tbaa !29
  store ptr %26, ptr %32, align 8, !tbaa !33
  store ptr %32, ptr %26, align 8, !tbaa !33
  %33 = add nuw nsw i32 %.282, 1
  %.val65 = load i32, ptr %2, align 8, !tbaa !25
  %34 = icmp slt i32 %33, %.val65
  br i1 %34, label %.critedge2, label %.critedge6.preheader, !llvm.loop !34

.critedge6.loopexit:                              ; preds = %58
  %35 = icmp eq i32 %.254, 0
  br i1 %35, label %.preheader, label %39, !llvm.loop !35

.preheader:                                       ; preds = %39, %.critedge6.loopexit
  %.val6689 = load i32, ptr %2, align 8, !tbaa !25
  %36 = icmp sgt i32 %.val6689, 0
  br i1 %36, label %.lr.ph93, label %.critedge8

.lr.ph93:                                         ; preds = %.preheader
  %37 = getelementptr i8, ptr %0, i64 140
  %38 = getelementptr inbounds nuw i8, ptr %0, i64 16
  br label %63

39:                                               ; preds = %.critedge6.preheader, %.critedge6.loopexit
  tail call void @Aig_ManIncrementTravId(ptr noundef nonnull %0) #3
  %40 = load ptr, ptr %19, align 8, !tbaa !32
  %41 = getelementptr i8, ptr %40, i64 4
  %.val5985 = load i32, ptr %41, align 4, !tbaa !36
  %42 = icmp sgt i32 %.val5985, 0
  br i1 %42, label %.lr.ph88, label %.preheader

.lr.ph88:                                         ; preds = %39, %58
  %indvars.iv95 = phi i64 [ %indvars.iv.next96, %58 ], [ 0, %39 ]
  %43 = phi ptr [ %59, %58 ], [ %40, %39 ]
  %.15386 = phi i32 [ %.254, %58 ], [ 0, %39 ]
  %44 = getelementptr i8, ptr %43, i64 8
  %.val62 = load ptr, ptr %44, align 8, !tbaa !27
  %45 = getelementptr inbounds nuw ptr, ptr %.val62, i64 %indvars.iv95
  %46 = load ptr, ptr %45, align 8, !tbaa !29
  %47 = getelementptr inbounds nuw i8, ptr %46, i64 24
  %48 = load i64, ptr %47, align 8
  %49 = and i64 %48, 32
  %.not56 = icmp eq i64 %49, 0
  br i1 %.not56, label %50, label %58

50:                                               ; preds = %.lr.ph88
  %51 = tail call i32 @Aig_ManRetimeMark_rec(ptr noundef nonnull %0, ptr noundef nonnull %46)
  %.not57 = icmp eq i32 %51, 0
  br i1 %.not57, label %58, label %52

52:                                               ; preds = %50
  %53 = load ptr, ptr %46, align 8, !tbaa !33
  %.not58 = icmp eq ptr %53, null
  br i1 %.not58, label %58, label %54

54:                                               ; preds = %52
  %55 = getelementptr inbounds nuw i8, ptr %53, i64 24
  %56 = load i64, ptr %55, align 8
  %57 = or i64 %56, 32
  store i64 %57, ptr %55, align 8
  br label %58

58:                                               ; preds = %52, %54, %50, %.lr.ph88
  %.254 = phi i32 [ %.15386, %.lr.ph88 ], [ %.15386, %50 ], [ 1, %54 ], [ 1, %52 ]
  %indvars.iv.next96 = add nuw nsw i64 %indvars.iv95, 1
  %59 = load ptr, ptr %19, align 8, !tbaa !32
  %60 = getelementptr i8, ptr %59, i64 4
  %.val59 = load i32, ptr %60, align 4, !tbaa !36
  %61 = sext i32 %.val59 to i64
  %62 = icmp slt i64 %indvars.iv.next96, %61
  br i1 %62, label %.lr.ph88, label %.critedge6.loopexit, !llvm.loop !37

63:                                               ; preds = %.lr.ph93, %63
  %.val6689.pn = phi i32 [ %.val6689, %.lr.ph93 ], [ %.val66, %63 ]
  %.491 = phi i32 [ 0, %.lr.ph93 ], [ %77, %63 ]
  %64 = load ptr, ptr %19, align 8, !tbaa !32
  %.val4.i70 = load i32, ptr %37, align 4, !tbaa !24
  %65 = sub i32 %.491, %.val6689.pn
  %66 = add i32 %65, %.val4.i70
  %67 = getelementptr i8, ptr %64, i64 8
  %.val.i72 = load ptr, ptr %67, align 8, !tbaa !27
  %68 = sext i32 %66 to i64
  %69 = getelementptr inbounds ptr, ptr %.val.i72, i64 %68
  %70 = load ptr, ptr %69, align 8, !tbaa !29
  %71 = load ptr, ptr %38, align 8, !tbaa !26
  %.val3.i73 = load i32, ptr %1, align 8, !tbaa !24
  %72 = add i32 %65, %.val3.i73
  %73 = getelementptr i8, ptr %71, i64 8
  %.val.i75 = load ptr, ptr %73, align 8, !tbaa !27
  %74 = sext i32 %72 to i64
  %75 = getelementptr inbounds ptr, ptr %.val.i75, i64 %74
  %76 = load ptr, ptr %75, align 8, !tbaa !29
  store ptr null, ptr %70, align 8, !tbaa !33
  store ptr null, ptr %76, align 8, !tbaa !33
  %77 = add nuw nsw i32 %.491, 1
  %.val66 = load i32, ptr %2, align 8, !tbaa !25
  %78 = icmp slt i32 %77, %.val66
  br i1 %78, label %63, label %.critedge8, !llvm.loop !38

.critedge8:                                       ; preds = %63, %.preheader
  ret void
}